; Function Attrs: nounwind uwtable
define range(i32 0, 2) i32 @Psr_ManIsMapped(ptr noundef readonly captures(none) %0) local_unnamed_addr #0 {
  %2 = tail call ptr (...) @Abc_FrameReadLibGen() #16
  %3 = icmp eq ptr %2, null
  br i1 %3, label %.critedge, label %.preheader

.preheader:                                       ; preds = %1
  %4 = getelementptr i8, ptr %0, i64 212
  %.val25 = load i32, ptr %4, align 4, !tbaa !3
  %5 = icmp sgt i32 %.val25, 0
  br i1 %5, label %.lr.ph, label %.critedge

.lr.ph:                                           ; preds = %.preheader
  %6 = getelementptr i8, ptr %0, i64 200
  %7 = getelementptr i8, ptr %0, i64 216
  %8 = getelementptr i8, ptr %0, i64 8
  br label %9

9:                                                ; preds = %.lr.ph, %31
  %indvars.iv = phi i64 [ 0, %.lr.ph ], [ %indvars.iv.next, %31 ]
  %.val18 = load ptr, ptr %6, align 8, !tbaa !10
  %.val19 = load ptr, ptr %7, align 8, !tbaa !10
  %10 = getelementptr inbounds nuw i32, ptr %.val19, i64 %indvars.iv
  %11 = load i32, ptr %10, align 4, !tbaa !11
  %12 = sext i32 %11 to i64
  %13 = getelementptr inbounds i32, ptr %.val18, i64 %12
  %14 = load i32, ptr %13, align 4, !tbaa !11
  %15 = add nsw i32 %14, -2
  store i32 %15, ptr @Psr_BoxSignals.V, align 8, !tbaa !12
  store i32 %15, ptr getelementptr inbounds nuw (i8, ptr @Psr_BoxSignals.V, i64 4), align 4, !tbaa !3
  %16 = load i32, ptr %10, align 4, !tbaa !11
  %17 = sext i32 %16 to i64
  %18 = getelementptr i32, ptr %.val18, i64 %17
  %19 = getelementptr i8, ptr %18, i64 12
  store ptr %19, ptr getelementptr inbounds nuw (i8, ptr @Psr_BoxSignals.V, i64 8), align 8, !tbaa !10
  %.val20 = load ptr, ptr %6, align 8, !tbaa !10
  %.val21 = load ptr, ptr %7, align 8, !tbaa !10
  %20 = getelementptr inbounds nuw i32, ptr %.val21, i64 %indvars.iv
  %21 = load i32, ptr %20, align 4, !tbaa !11
  %22 = sext i32 %21 to i64
  %23 = getelementptr i32, ptr %.val20, i64 %22
  %24 = getelementptr i8, ptr %23, i64 12
  %25 = load i32, ptr %24, align 4, !tbaa !11
  %.not.i.not = icmp eq i32 %25, 0
  br i1 %.not.i.not, label %31, label %26

26:                                               ; preds = %9
  %27 = getelementptr i8, ptr %23, i64 4
  %28 = load i32, ptr %27, align 4, !tbaa !11
  %.val24 = load ptr, ptr %8, align 8, !tbaa !13
  %29 = tail call ptr @Abc_NamStr(ptr noundef %.val24, i32 noundef %28) #16
  %30 = tail call ptr @Mio_LibraryReadGateByName(ptr noundef nonnull %2, ptr noundef %29, ptr noundef null) #16
  %.not17 = icmp eq ptr %30, null
  br i1 %.not17, label %31, label %.critedge

31:                                               ; preds = %9, %26
  %indvars.iv.next = add nuw nsw i64 %indvars.iv, 1
  %.val = load i32, ptr %4, align 4, !tbaa !3
  %32 = sext i32 %.val to i64
  %33 = icmp slt i64 %indvars.iv.next, %32
  br i1 %33, label %9, label %.critedge, !llvm.loop !16

.critedge:                                        ; preds = %26, %31, %.preheader, %1
  %.0 = phi i32 [ 0, %1 ], [ 0, %.preheader ], [ 1, %26 ], [ 0, %31 ]
  ret i32 %.0
}